; Function Attrs: mustprogress uwtable
define void @_ZN7rocksdb24BuildColumnFamilyOptionsERKNS_19ColumnFamilyOptionsERKNS_16MutableCFOptionsE(ptr dead_on_unwind noalias nonnull writable sret(%"struct.rocksdb::ColumnFamilyOptions") align 8 %0, ptr noundef nonnull align 8 dereferenceable(832) %1, ptr noundef nonnull align 8 dereferenceable(608) %2) local_unnamed_addr #1 personality ptr @__gxx_personality_v0 {
  tail call void @_ZN7rocksdb19ColumnFamilyOptionsC2ERKS0_(ptr noundef nonnull align 8 dereferenceable(832) %0, ptr noundef nonnull align 8 dereferenceable(832) %1)
  invoke void @_ZN7rocksdb25UpdateColumnFamilyOptionsERKNS_16MutableCFOptionsEPNS_19ColumnFamilyOptionsE(ptr noundef nonnull align 8 dereferenceable(608) %2, ptr noundef nonnull %0)
          to label %6 unwind label %4

4:                                                ; preds = %3
  %5 = landingpad { ptr, i32 }
          cleanup
  tail call void @_ZN7rocksdb19ColumnFamilyOptionsD2Ev(ptr noundef nonnull align 8 dereferenceable(832) %0) #27
  resume { ptr, i32 } %5

6:                                                ; preds = %3
  ret void
}